target datalayout = "e-m:e-p270:32:32-p271:32:32-p272:64:64-i64:64-i128:128-f80:128-n8:16:32:64-S128"
target triple = "x86_64-pc-linux-gnu"

%struct.uv_udp_s = type { ptr, ptr, i32, ptr, [2 x ptr], %union.anon, ptr, i32, i64, i64, ptr, ptr, %struct.uv__io_s, [2 x ptr], [2 x ptr] }
%union.anon = type { [4 x ptr] }
%struct.uv__io_s = type { ptr, [2 x ptr], [2 x ptr], i32, i32, i32 }
%struct.uv_loop_s = type { ptr, i32, [2 x ptr], %union.anon.0, ptr, i32, i64, i32, [2 x ptr], [2 x ptr], ptr, i32, i32, [2 x ptr], %union.pthread_mutex_t, %struct.uv_async_s, %union.pthread_rwlock_t, ptr, [2 x ptr], [2 x ptr], [2 x ptr], [2 x ptr], [2 x ptr], ptr, %struct.uv__io_s, i32, %struct.anon, i64, i64, [2 x i32], %struct.uv__io_s, %struct.uv_signal_s, i32, %struct.uv__io_s, ptr, i32 }
%union.anon.0 = type { ptr }
%union.pthread_mutex_t = type { %struct.__pthread_mutex_s }
%struct.__pthread_mutex_s = type { i32, i32, i32, i32, i32, i16, i16, %struct.__pthread_internal_list }
%struct.__pthread_internal_list = type { ptr, ptr }
%struct.uv_async_s = type { ptr, ptr, i32, ptr, [2 x ptr], %union.anon.1, ptr, i32, ptr, [2 x ptr], i32 }
%union.anon.1 = type { [4 x ptr] }
%union.pthread_rwlock_t = type { %struct.__pthread_rwlock_arch_t }
%struct.__pthread_rwlock_arch_t = type { i32, i32, i32, i32, i32, i32, i32, i32, i8, [7 x i8], i64, i32 }
%struct.anon = type { ptr, i32 }
%struct.uv_signal_s = type { ptr, ptr, i32, ptr, [2 x ptr], %union.anon.2, ptr, i32, ptr, i32, %struct.anon.3, i32, i32 }
%union.anon.2 = type { [4 x ptr] }
%struct.anon.3 = type { ptr, ptr, ptr, i32 }
%struct.uv_handle_s = type { ptr, ptr, i32, ptr, [2 x ptr], %union.anon.4, ptr, i32 }
%union.anon.4 = type { [4 x ptr] }

; Function Attrs: nounwind uwtable
define dso_local i32 @uv__udp_init_ex(ptr noundef %0, ptr noundef %1, i32 noundef %2, i32 noundef %3) #0 {
  %5 = alloca i32, align 4
  %6 = alloca ptr, align 8
  %7 = alloca ptr, align 8
  %8 = alloca i32, align 4
  %9 = alloca i32, align 4
  %10 = alloca i32, align 4
  store ptr %0, ptr %6, align 8
  store ptr %1, ptr %7, align 8
  store i32 %2, ptr %8, align 4
  store i32 %3, ptr %9, align 4
  store i32 -1, ptr %10, align 4
  %11 = load i32, ptr %9, align 4
  %12 = icmp ne i32 %11, 0
  br i1 %12, label %13, label %21

13:                                               ; preds = %4
  %14 = load i32, ptr %9, align 4
  %15 = call i32 @uv__socket(i32 noundef %14, i32 noundef 2, i32 noundef 0)
  store i32 %15, ptr %10, align 4
  %16 = load i32, ptr %10, align 4
  %17 = icmp slt i32 %16, 0
  br i1 %17, label %18, label %20

18:                                               ; preds = %13
  %19 = load i32, ptr %10, align 4
  store i32 %19, ptr %5, align 4
  br label %94

20:                                               ; preds = %13
  br label %21

21:                                               ; preds = %20, %4
  br label %22

22:                                               ; preds = %21
  %23 = load ptr, ptr %6, align 8
  %24 = load ptr, ptr %7, align 8
  %25 = getelementptr inbounds %struct.uv_handle_s, ptr %24, i32 0, i32 1
  store ptr %23, ptr %25, align 8
  %26 = load ptr, ptr %7, align 8
  %27 = getelementptr inbounds %struct.uv_handle_s, ptr %26, i32 0, i32 2
  store i32 15, ptr %27, align 8
  %28 = load ptr, ptr %7, align 8
  %29 = getelementptr inbounds %struct.uv_handle_s, ptr %28, i32 0, i32 7
  store i32 8, ptr %29, align 8
  br label %30

30:                                               ; preds = %22
  %31 = load ptr, ptr %6, align 8
  %32 = getelementptr inbounds %struct.uv_loop_s, ptr %31, i32 0, i32 2
  %33 = load ptr, ptr %7, align 8
  %34 = getelementptr inbounds %struct.uv_handle_s, ptr %33, i32 0, i32 4
  %35 = getelementptr inbounds [2 x ptr], ptr %34, i64 0, i64 0
  store ptr %32, ptr %35, align 8
  %36 = load ptr, ptr %6, align 8
  %37 = getelementptr inbounds %struct.uv_loop_s, ptr %36, i32 0, i32 2
  %38 = getelementptr inbounds [2 x ptr], ptr %37, i64 0, i64 1
  %39 = load ptr, ptr %38, align 8
  %40 = load ptr, ptr %7, align 8
  %41 = getelementptr inbounds %struct.uv_handle_s, ptr %40, i32 0, i32 4
  %42 = getelementptr inbounds [2 x ptr], ptr %41, i64 0, i64 1
  store ptr %39, ptr %42, align 8
  %43 = load ptr, ptr %7, align 8
  %44 = getelementptr inbounds %struct.uv_handle_s, ptr %43, i32 0, i32 4
  %45 = load ptr, ptr %7, align 8
  %46 = getelementptr inbounds %struct.uv_handle_s, ptr %45, i32 0, i32 4
  %47 = getelementptr inbounds [2 x ptr], ptr %46, i64 0, i64 1
  %48 = load ptr, ptr %47, align 8
  %49 = getelementptr inbounds [2 x ptr], ptr %48, i64 0, i64 0
  store ptr %44, ptr %49, align 8
  %50 = load ptr, ptr %7, align 8
  %51 = getelementptr inbounds %struct.uv_handle_s, ptr %50, i32 0, i32 4
  %52 = load ptr, ptr %6, align 8
  %53 = getelementptr inbounds %struct.uv_loop_s, ptr %52, i32 0, i32 2
  %54 = getelementptr inbounds [2 x ptr], ptr %53, i64 0, i64 1
  store ptr %51, ptr %54, align 8
  br label %55

55:                                               ; preds = %30
  %56 = load ptr, ptr %7, align 8
  %57 = getelementptr inbounds %struct.uv_handle_s, ptr %56, i32 0, i32 6
  store ptr null, ptr %57, align 8
  br label %58

58:                                               ; preds = %55
  %59 = load ptr, ptr %7, align 8
  %60 = getelementptr inbounds %struct.uv_udp_s, ptr %59, i32 0, i32 10
  store ptr null, ptr %60, align 8
  %61 = load ptr, ptr %7, align 8
  %62 = getelementptr inbounds %struct.uv_udp_s, ptr %61, i32 0, i32 11
  store ptr null, ptr %62, align 8
  %63 = load ptr, ptr %7, align 8
  %64 = getelementptr inbounds %struct.uv_udp_s, ptr %63, i32 0, i32 8
  store i64 0, ptr %64, align 8
  %65 = load ptr, ptr %7, align 8
  %66 = getelementptr inbounds %struct.uv_udp_s, ptr %65, i32 0, i32 9
  store i64 0, ptr %66, align 8
  %67 = load ptr, ptr %7, align 8
  %68 = getelementptr inbounds %struct.uv_udp_s, ptr %67, i32 0, i32 12
  %69 = load i32, ptr %10, align 4
  call void @uv__io_init(ptr noundef %68, ptr noundef @uv__udp_io, i32 noundef %69)
  br label %70

70:                                               ; preds = %58
  %71 = load ptr, ptr %7, align 8
  %72 = getelementptr inbounds %struct.uv_udp_s, ptr %71, i32 0, i32 13
  %73 = load ptr, ptr %7, align 8
  %74 = getelementptr inbounds %struct.uv_udp_s, ptr %73, i32 0, i32 13
  %75 = getelementptr inbounds [2 x ptr], ptr %74, i64 0, i64 0
  store ptr %72, ptr %75, align 8
  %76 = load ptr, ptr %7, align 8
  %77 = getelementptr inbounds %struct.uv_udp_s, ptr %76, i32 0, i32 13
  %78 = load ptr, ptr %7, align 8
  %79 = getelementptr inbounds %struct.uv_udp_s, ptr %78, i32 0, i32 13
  %80 = getelementptr inbounds [2 x ptr], ptr %79, i64 0, i64 1
  store ptr %77, ptr %80, align 8
  br label %81

81:                                               ; preds = %70
  br label %82

82:                                               ; preds = %81
  %83 = load ptr, ptr %7, align 8
  %84 = getelementptr inbounds %struct.uv_udp_s, ptr %83, i32 0, i32 14
  %85 = load ptr, ptr %7, align 8
  %86 = getelementptr inbounds %struct.uv_udp_s, ptr %85, i32 0, i32 14
  %87 = getelementptr inbounds [2 x ptr], ptr %86, i64 0, i64 0
  store ptr %84, ptr %87, align 8
  %88 = load ptr, ptr %7, align 8
  %89 = getelementptr inbounds %struct.uv_udp_s, ptr %88, i32 0, i32 14
  %90 = load ptr, ptr %7, align 8
  %91 = getelementptr inbounds %struct.uv_udp_s, ptr %90, i32 0, i32 14
  %92 = getelementptr inbounds [2 x ptr], ptr %91, i64 0, i64 1
  store ptr %89, ptr %92, align 8
  br label %93

93:                                               ; preds = %82
  store i32 0, ptr %5, align 4
  br label %94

94:                                               ; preds = %93, %18
  %95 = load i32, ptr %5, align 4
  ret i32 %95
}