; Function Attrs: nounwind uwtable
define dso_local range(i32 -2147483648, 1) i32 @uv__udp_init_ex(ptr noundef %0, ptr noundef %1, i32 noundef %2, i32 noundef %3) local_unnamed_addr #0 {
  %.not = icmp eq i32 %3, 0
  br i1 %.not, label %8, label %5

5:                                                ; preds = %4
  %6 = tail call i32 @uv__socket(i32 noundef %3, i32 noundef 2, i32 noundef 0) #9
  %7 = icmp slt i32 %6, 0
  br i1 %7, label %24, label %8

8:                                                ; preds = %4, %5
  %.0 = phi i32 [ %6, %5 ], [ -1, %4 ]
  %9 = getelementptr inbounds nuw i8, ptr %1, i64 8
  store ptr %0, ptr %9, align 8
  %10 = getelementptr inbounds nuw i8, ptr %1, i64 16
  store i32 15, ptr %10, align 8
  %11 = getelementptr inbounds nuw i8, ptr %1, i64 88
  store i32 8, ptr %11, align 8
  %12 = getelementptr inbounds nuw i8, ptr %0, i64 16
  %13 = getelementptr inbounds nuw i8, ptr %1, i64 32
  store ptr %12, ptr %13, align 8
  %14 = getelementptr inbounds nuw i8, ptr %0, i64 24
  %15 = load ptr, ptr %14, align 8
  %16 = getelementptr inbounds nuw i8, ptr %1, i64 40
  store ptr %15, ptr %16, align 8
  store ptr %13, ptr %15, align 8
  store ptr %13, ptr %14, align 8
  %17 = getelementptr inbounds nuw i8, ptr %1, i64 80
  store ptr null, ptr %17, align 8
  %18 = getelementptr inbounds nuw i8, ptr %1, i64 96
  %19 = getelementptr inbounds nuw i8, ptr %1, i64 128
  tail call void @llvm.memset.p0.i64(ptr noundef nonnull align 8 dereferenceable(32) %18, i8 0, i64 32, i1 false)
  tail call void @uv__io_init(ptr noundef nonnull %19, ptr noundef nonnull @uv__udp_io, i32 noundef %.0) #9
  %20 = getelementptr inbounds nuw i8, ptr %1, i64 184
  store ptr %20, ptr %20, align 8
  %21 = getelementptr inbounds nuw i8, ptr %1, i64 192
  store ptr %20, ptr %21, align 8
  %22 = getelementptr inbounds nuw i8, ptr %1, i64 200
  store ptr %22, ptr %22, align 8
  %23 = getelementptr inbounds nuw i8, ptr %1, i64 208
  store ptr %22, ptr %23, align 8
  br label %24

24:                                               ; preds = %5, %8
  %.031 = phi i32 [ 0, %8 ], [ %6, %5 ]
  ret i32 %.031
}